target datalayout = "e-m:e-p270:32:32-p271:32:32-p272:64:64-i64:64-i128:128-f80:128-n8:16:32:64-S128"
target triple = "x86_64-pc-linux-gnu"

%struct.tls12_lookup = type { i32, i32 }
%struct.evp_pkey_st = type { i32, i32, %union.anon.1, ptr }
%union.anon.1 = type { ptr }

@tls12_sigalgs = internal constant [16 x i8] c"\06\01\06\03\05\01\05\03\04\01\04\03\02\01\02\03", align 16
@.str = private unnamed_addr constant [116 x i8] c"generated/home/dtcxzyw/WorkSpace/Projects/compilers/llvm-opt-benchmark/bench/libquic/libquic/boringssl/ssl/t1_lib.c\00", align 1
@tls12_sig = internal constant [2 x %struct.tls12_lookup] [%struct.tls12_lookup { i32 6, i32 1 }, %struct.tls12_lookup { i32 408, i32 3 }], align 16

; Function Attrs: nounwind uwtable
define internal i32 @tls12_find_id(i32 noundef %0, ptr noundef %1, i64 noundef %2) #0 {
  %4 = alloca i32, align 4
  %5 = alloca i32, align 4
  %6 = alloca ptr, align 8
  %7 = alloca i64, align 8
  %8 = alloca i64, align 8
  %9 = alloca i32, align 4
  store i32 %0, ptr %5, align 4, !tbaa !58
  store ptr %1, ptr %6, align 8, !tbaa !162
  store i64 %2, ptr %7, align 8, !tbaa !56
  call void @llvm.lifetime.start.p0(i64 8, ptr %8) #8
  store i64 0, ptr %8, align 8, !tbaa !56
  br label %10

10:                                               ; preds = %29, %3
  %11 = load i64, ptr %8, align 8, !tbaa !56
  %12 = load i64, ptr %7, align 8, !tbaa !56
  %13 = icmp ult i64 %11, %12
  br i1 %13, label %14, label %32

14:                                               ; preds = %10
  %15 = load ptr, ptr %6, align 8, !tbaa !162
  %16 = load i64, ptr %8, align 8, !tbaa !56
  %17 = getelementptr inbounds nuw %struct.tls12_lookup, ptr %15, i64 %16
  %18 = getelementptr inbounds nuw %struct.tls12_lookup, ptr %17, i32 0, i32 0
  %19 = load i32, ptr %18, align 4, !tbaa !163
  %20 = load i32, ptr %5, align 4, !tbaa !58
  %21 = icmp eq i32 %19, %20
  br i1 %21, label %22, label %28

22:                                               ; preds = %14
  %23 = load ptr, ptr %6, align 8, !tbaa !162
  %24 = load i64, ptr %8, align 8, !tbaa !56
  %25 = getelementptr inbounds nuw %struct.tls12_lookup, ptr %23, i64 %24
  %26 = getelementptr inbounds nuw %struct.tls12_lookup, ptr %25, i32 0, i32 1
  %27 = load i32, ptr %26, align 4, !tbaa !165
  store i32 %27, ptr %4, align 4
  store i32 1, ptr %9, align 4
  br label %33

28:                                               ; preds = %14
  br label %29

29:                                               ; preds = %28
  %30 = load i64, ptr %8, align 8, !tbaa !56
  %31 = add i64 %30, 1
  store i64 %31, ptr %8, align 8, !tbaa !56
  br label %10, !llvm.loop !166

32:                                               ; preds = %10
  store i32 -1, ptr %4, align 4
  store i32 1, ptr %9, align 4
  br label %33

33:                                               ; preds = %32, %22
  call void @llvm.lifetime.end.p0(i64 8, ptr %8) #8
  %34 = load i32, ptr %4, align 4
  ret i32 %34
}

; Function Attrs: nounwind uwtable
define hidden ptr @tls12_get_hash(i8 noundef zeroext %0) #0 {
  %2 = alloca ptr, align 8
  %3 = alloca i8, align 1
  store i8 %0, ptr %3, align 1, !tbaa !103
  %4 = load i8, ptr %3, align 1, !tbaa !103
  %5 = zext i8 %4 to i32
  switch i32 %5, label %14 [
    i32 2, label %6
    i32 4, label %8
    i32 5, label %10
    i32 6, label %12
  ]

6:                                                ; preds = %1
  %7 = call ptr @EVP_sha1()
  store ptr %7, ptr %2, align 8
  br label %15

8:                                                ; preds = %1
  %9 = call ptr @EVP_sha256()
  store ptr %9, ptr %2, align 8
  br label %15

10:                                               ; preds = %1
  %11 = call ptr @EVP_sha384()
  store ptr %11, ptr %2, align 8
  br label %15

12:                                               ; preds = %1
  %13 = call ptr @EVP_sha512()
  store ptr %13, ptr %2, align 8
  br label %15

14:                                               ; preds = %1
  store ptr null, ptr %2, align 8
  br label %15

15:                                               ; preds = %14, %12, %10, %8, %6
  %16 = load ptr, ptr %2, align 8
  ret ptr %16
}

; Function Attrs: nounwind uwtable
define hidden i64 @tls12_get_psigalgs(ptr noundef %0, ptr noundef %1) #0 {
  %3 = alloca ptr, align 8
  %4 = alloca ptr, align 8
  store ptr %0, ptr %3, align 8, !tbaa !69
  store ptr %1, ptr %4, align 8, !tbaa !64
  %5 = load ptr, ptr %4, align 8, !tbaa !64
  store ptr @tls12_sigalgs, ptr %5, align 8, !tbaa !55
  ret i64 16
}

; Function Attrs: nounwind uwtable
define hidden i32 @tls12_get_sigid(i32 noundef %0) #0 {
  %2 = alloca i32, align 4
  store i32 %0, ptr %2, align 4, !tbaa !58
  %3 = load i32, ptr %2, align 4, !tbaa !58
  %4 = call i32 @tls12_find_id(i32 noundef %3, ptr noundef @tls12_sig, i64 noundef 2)
  ret i32 %4
}

; Function Attrs: nounwind uwtable
define hidden i32 @tls12_check_peer_sigalg(ptr noundef %0, ptr noundef %1, ptr noundef %2, i8 noundef zeroext %3, i8 noundef zeroext %4, ptr noundef %5) #0 {
  %7 = alloca i32, align 4
  %8 = alloca ptr, align 8
  %9 = alloca ptr, align 8
  %10 = alloca ptr, align 8
  %11 = alloca i8, align 1
  %12 = alloca i8, align 1
  %13 = alloca ptr, align 8
  %14 = alloca ptr, align 8
  %15 = alloca i64, align 8
  %16 = alloca i64, align 8
  %17 = alloca i32, align 4
  %18 = alloca i32, align 4
  store ptr %0, ptr %8, align 8, !tbaa !69
  store ptr %1, ptr %9, align 8, !tbaa !106
  store ptr %2, ptr %10, align 8, !tbaa !93
  store i8 %3, ptr %11, align 1, !tbaa !103
  store i8 %4, ptr %12, align 1, !tbaa !103
  store ptr %5, ptr %13, align 8, !tbaa !100
  call void @llvm.lifetime.start.p0(i64 8, ptr %14) #8
  call void @llvm.lifetime.start.p0(i64 8, ptr %15) #8
  call void @llvm.lifetime.start.p0(i64 8, ptr %16) #8
  call void @llvm.lifetime.start.p0(i64 4, ptr %17) #8
  %19 = load ptr, ptr %13, align 8, !tbaa !100
  %20 = getelementptr inbounds nuw %struct.evp_pkey_st, ptr %19, i32 0, i32 1
  %21 = load i32, ptr %20, align 4, !tbaa !108
  %22 = call i32 @tls12_get_sigid(i32 noundef %21)
  store i32 %22, ptr %17, align 4, !tbaa !58
  %23 = load i32, ptr %17, align 4, !tbaa !58
  %24 = icmp eq i32 %23, -1
  br i1 %24, label %25, label %27

25:                                               ; preds = %6
  call void @ERR_put_error(i32 noundef 16, i32 noundef 0, i32 noundef 68, ptr noundef @.str, i32 noundef 527)
  %26 = load ptr, ptr %10, align 8, !tbaa !93
  store i32 80, ptr %26, align 4, !tbaa !58
  store i32 0, ptr %7, align 4
  store i32 1, ptr %18, align 4
  br label %80

27:                                               ; preds = %6
  %28 = load i32, ptr %17, align 4, !tbaa !58
  %29 = load i8, ptr %12, align 1, !tbaa !103
  %30 = zext i8 %29 to i32
  %31 = icmp ne i32 %28, %30
  br i1 %31, label %32, label %34

32:                                               ; preds = %27
  call void @ERR_put_error(i32 noundef 16, i32 noundef 0, i32 noundef 245, ptr noundef @.str, i32 noundef 534)
  %33 = load ptr, ptr %10, align 8, !tbaa !93
  store i32 47, ptr %33, align 4, !tbaa !58
  store i32 0, ptr %7, align 4
  store i32 1, ptr %18, align 4
  br label %80

34:                                               ; preds = %27
  %35 = load ptr, ptr %8, align 8, !tbaa !69
  %36 = call i64 @tls12_get_psigalgs(ptr noundef %35, ptr noundef %14)
  store i64 %36, ptr %15, align 8, !tbaa !56
  store i64 0, ptr %16, align 8, !tbaa !56
  br label %37

37:                                               ; preds = %59, %34
  %38 = load i64, ptr %16, align 8, !tbaa !56
  %39 = load i64, ptr %15, align 8, !tbaa !56
  %40 = icmp ult i64 %38, %39
  br i1 %40, label %41, label %64

41:                                               ; preds = %37
  %42 = load i8, ptr %11, align 1, !tbaa !103
  %43 = zext i8 %42 to i32
  %44 = load ptr, ptr %14, align 8, !tbaa !55
  %45 = getelementptr inbounds i8, ptr %44, i64 0
  %46 = load i8, ptr %45, align 1, !tbaa !103
  %47 = zext i8 %46 to i32
  %48 = icmp eq i32 %43, %47
  br i1 %48, label %49, label %58

49:                                               ; preds = %41
  %50 = load i8, ptr %12, align 1, !tbaa !103
  %51 = zext i8 %50 to i32
  %52 = load ptr, ptr %14, align 8, !tbaa !55
  %53 = getelementptr inbounds i8, ptr %52, i64 1
  %54 = load i8, ptr %53, align 1, !tbaa !103
  %55 = zext i8 %54 to i32
  %56 = icmp eq i32 %51, %55
  br i1 %56, label %57, label %58

57:                                               ; preds = %49
  br label %64

58:                                               ; preds = %49, %41
  br label %59

59:                                               ; preds = %58
  %60 = load i64, ptr %16, align 8, !tbaa !56
  %61 = add i64 %60, 2
  store i64 %61, ptr %16, align 8, !tbaa !56
  %62 = load ptr, ptr %14, align 8, !tbaa !55
  %63 = getelementptr inbounds i8, ptr %62, i64 2
  store ptr %63, ptr %14, align 8, !tbaa !55
  br label %37, !llvm.loop !111

64:                                               ; preds = %57, %37
  %65 = load i64, ptr %16, align 8, !tbaa !56
  %66 = load i64, ptr %15, align 8, !tbaa !56
  %67 = icmp eq i64 %65, %66
  br i1 %67, label %68, label %70

68:                                               ; preds = %64
  call void @ERR_put_error(i32 noundef 16, i32 noundef 0, i32 noundef 245, ptr noundef @.str, i32 noundef 548)
  %69 = load ptr, ptr %10, align 8, !tbaa !93
  store i32 47, ptr %69, align 4, !tbaa !58
  store i32 0, ptr %7, align 4
  store i32 1, ptr %18, align 4
  br label %80

70:                                               ; preds = %64
  %71 = load i8, ptr %11, align 1, !tbaa !103
  %72 = call ptr @tls12_get_hash(i8 noundef zeroext %71)
  %73 = load ptr, ptr %9, align 8, !tbaa !106
  store ptr %72, ptr %73, align 8, !tbaa !112
  %74 = load ptr, ptr %9, align 8, !tbaa !106
  %75 = load ptr, ptr %74, align 8, !tbaa !112
  %76 = icmp eq ptr %75, null
  br i1 %76, label %77, label %79

77:                                               ; preds = %70
  call void @ERR_put_error(i32 noundef 16, i32 noundef 0, i32 noundef 231, ptr noundef @.str, i32 noundef 555)
  %78 = load ptr, ptr %10, align 8, !tbaa !93
  store i32 47, ptr %78, align 4, !tbaa !58
  store i32 0, ptr %7, align 4
  store i32 1, ptr %18, align 4
  br label %80

79:                                               ; preds = %70
  store i32 1, ptr %7, align 4
  store i32 1, ptr %18, align 4
  br label %80

80:                                               ; preds = %79, %77, %68, %32, %25
  call void @llvm.lifetime.end.p0(i64 4, ptr %17) #8
  call void @llvm.lifetime.end.p0(i64 8, ptr %16) #8
  call void @llvm.lifetime.end.p0(i64 8, ptr %15) #8
  call void @llvm.lifetime.end.p0(i64 8, ptr %14) #8
  %81 = load i32, ptr %7, align 4
  ret i32 %81
}