; Function Attrs: nounwind uwtable
define hidden range(i32 0, 2) i32 @tls12_check_peer_sigalg(ptr noundef readnone captures(none) %0, ptr noundef writeonly captures(none) %1, ptr noundef writeonly captures(none) %2, i8 noundef zeroext %3, i8 noundef zeroext %4, ptr noundef readonly captures(none) %5) local_unnamed_addr #0 {
  %7 = getelementptr inbounds nuw i8, ptr %5, i64 4
  %8 = load i32, ptr %7, align 4, !tbaa !83
  br label %9

9:                                                ; preds = %13, %6
  %.09.i.i = phi i64 [ 0, %6 ], [ %14, %13 ]
  %10 = getelementptr inbounds nuw %struct.tls12_lookup, ptr @tls12_sig, i64 %.09.i.i
  %11 = load i32, ptr %10, align 8, !tbaa !86
  %12 = icmp eq i32 %11, %8
  br i1 %12, label %tls12_get_sigid.exit, label %13

13:                                               ; preds = %9
  %14 = add nuw nsw i64 %.09.i.i, 1
  %exitcond.not.i.i = icmp eq i64 %14, 2
  br i1 %exitcond.not.i.i, label %tls12_get_sigid.exit.thread, label %9, !llvm.loop !88

tls12_get_sigid.exit:                             ; preds = %9
  %15 = getelementptr inbounds nuw %struct.tls12_lookup, ptr @tls12_sig, i64 %.09.i.i, i32 1
  %16 = load i32, ptr %15, align 4, !tbaa !89
  %17 = icmp eq i32 %16, -1
  br i1 %17, label %tls12_get_sigid.exit.thread, label %18

tls12_get_sigid.exit.thread:                      ; preds = %13, %tls12_get_sigid.exit
  tail call void @ERR_put_error(i32 noundef 16, i32 noundef 0, i32 noundef 68, ptr noundef nonnull @.str, i32 noundef 527) #21
  br label %.sink.split

18:                                               ; preds = %tls12_get_sigid.exit
  %19 = zext i8 %4 to i32
  %.not = icmp eq i32 %16, %19
  br i1 %.not, label %.preheader, label %20

20:                                               ; preds = %18
  tail call void @ERR_put_error(i32 noundef 16, i32 noundef 0, i32 noundef 245, ptr noundef nonnull @.str, i32 noundef 534) #21
  br label %.sink.split

.preheader:                                       ; preds = %18, %27
  %.01929 = phi i64 [ %28, %27 ], [ 0, %18 ]
  %.02328 = phi ptr [ %29, %27 ], [ @tls12_sigalgs, %18 ]
  %21 = load i8, ptr %.02328, align 1, !tbaa !90
  %22 = icmp eq i8 %3, %21
  br i1 %22, label %23, label %27

23:                                               ; preds = %.preheader
  %24 = getelementptr inbounds nuw i8, ptr %.02328, i64 1
  %25 = load i8, ptr %24, align 1, !tbaa !90
  %26 = icmp eq i8 %4, %25
  br i1 %26, label %.thread, label %27

27:                                               ; preds = %.preheader, %23
  %28 = add nuw nsw i64 %.01929, 2
  %29 = getelementptr inbounds nuw i8, ptr %.02328, i64 2
  %30 = icmp samesign ult i64 %.01929, 14
  br i1 %30, label %.preheader, label %31, !llvm.loop !91

31:                                               ; preds = %27
  tail call void @ERR_put_error(i32 noundef 16, i32 noundef 0, i32 noundef 245, ptr noundef nonnull @.str, i32 noundef 548) #21
  br label %.sink.split

.thread:                                          ; preds = %23
  switch i8 %3, label %tls12_get_hash.exit.thread [
    i8 2, label %32
    i8 4, label %34
    i8 5, label %36
    i8 6, label %38
  ]

tls12_get_hash.exit.thread:                       ; preds = %.thread
  store ptr null, ptr %1, align 8, !tbaa !92
  br label %41

32:                                               ; preds = %.thread
  %33 = tail call ptr @EVP_sha1() #21
  br label %tls12_get_hash.exit

34:                                               ; preds = %.thread
  %35 = tail call ptr @EVP_sha256() #21
  br label %tls12_get_hash.exit

36:                                               ; preds = %.thread
  %37 = tail call ptr @EVP_sha384() #21
  br label %tls12_get_hash.exit

38:                                               ; preds = %.thread
  %39 = tail call ptr @EVP_sha512() #21
  br label %tls12_get_hash.exit

tls12_get_hash.exit:                              ; preds = %32, %34, %36, %38
  %.0.i = phi ptr [ %39, %38 ], [ %37, %36 ], [ %35, %34 ], [ %33, %32 ]
  store ptr %.0.i, ptr %1, align 8, !tbaa !92
  %40 = icmp eq ptr %.0.i, null
  br i1 %40, label %41, label %42

41:                                               ; preds = %tls12_get_hash.exit.thread, %tls12_get_hash.exit
  tail call void @ERR_put_error(i32 noundef 16, i32 noundef 0, i32 noundef 231, ptr noundef nonnull @.str, i32 noundef 555) #21
  br label %.sink.split

.sink.split:                                      ; preds = %tls12_get_sigid.exit.thread, %20, %31, %41
  %.sink = phi i32 [ 47, %41 ], [ 47, %31 ], [ 47, %20 ], [ 80, %tls12_get_sigid.exit.thread ]
  store i32 %.sink, ptr %2, align 4, !tbaa !80
  br label %42

42:                                               ; preds = %.sink.split, %tls12_get_hash.exit
  %.0 = phi i32 [ 1, %tls12_get_hash.exit ], [ 0, %.sink.split ]
  ret i32 %.0
}